; ModuleID = '10/2054.c'
source_filename = "10/2054.c"
target datalayout = "e-m:e-p270:32:32-p271:32:32-p272:64:64-i64:64-f80:128-n8:16:32:64-S128"
target triple = "x86_64-pc-linux-gnu"

@.str = private unnamed_addr constant [3 x i8] c"%d\00", align 1
@.str.1 = private unnamed_addr constant [4 x i8] c" %d\00", align 1
@.str.2 = private unnamed_addr constant [4 x i8] c"%d\0A\00", align 1

; Function Attrs: noinline nounwind uwtable
define dso_local i32 @max(i32* %0) #0 {
  %2 = alloca i32*, align 8
  %3 = alloca i32, align 4
  %4 = alloca i32, align 4
  %5 = alloca i32, align 4
  store i32* %0, i32** %2, align 8
  store i32 1, i32* %3, align 4
  br label %6

6:                                                ; preds = %52, %1
  %7 = load i32, i32* %3, align 4
  %8 = icmp slt i32 %7, 25
  br i1 %8, label %9, label %55

9:                                                ; preds = %6
  %10 = load i32, i32* %3, align 4
  %11 = add nsw i32 %10, 1
  store i32 %11, i32* %4, align 4
  br label %12

12:                                               ; preds = %48, %9
  %13 = load i32, i32* %4, align 4
  %14 = icmp slt i32 %13, 26
  br i1 %14, label %15, label %51

15:                                               ; preds = %12
  %16 = load i32*, i32** %2, align 8
  %17 = load i32, i32* %3, align 4
  %18 = sext i32 %17 to i64
  %19 = getelementptr inbounds i32, i32* %16, i64 %18
  %20 = load i32, i32* %19, align 4
  %21 = load i32*, i32** %2, align 8
  %22 = load i32, i32* %4, align 4
  %23 = sext i32 %22 to i64
  %24 = getelementptr inbounds i32, i32* %21, i64 %23
  %25 = load i32, i32* %24, align 4
  %26 = icmp slt i32 %20, %25
  br i1 %26, label %27, label %47

27:                                               ; preds = %15
  %28 = load i32*, i32** %2, align 8
  %29 = load i32, i32* %3, align 4
  %30 = sext i32 %29 to i64
  %31 = getelementptr inbounds i32, i32* %28, i64 %30
  %32 = load i32, i32* %31, align 4
  store i32 %32, i32* %5, align 4
  %33 = load i32*, i32** %2, align 8
  %34 = load i32, i32* %4, align 4
  %35 = sext i32 %34 to i64
  %36 = getelementptr inbounds i32, i32* %33, i64 %35
  %37 = load i32, i32* %36, align 4
  %38 = load i32*, i32** %2, align 8
  %39 = load i32, i32* %3, align 4
  %40 = sext i32 %39 to i64
  %41 = getelementptr inbounds i32, i32* %38, i64 %40
  store i32 %37, i32* %41, align 4
  %42 = load i32, i32* %5, align 4
  %43 = load i32*, i32** %2, align 8
  %44 = load i32, i32* %4, align 4
  %45 = sext i32 %44 to i64
  %46 = getelementptr inbounds i32, i32* %43, i64 %45
  store i32 %42, i32* %46, align 4
  br label %47

47:                                               ; preds = %27, %15
  br label %48

48:                                               ; preds = %47
  %49 = load i32, i32* %4, align 4
  %50 = add nsw i32 %49, 1
  store i32 %50, i32* %4, align 4
  br label %12

51:                                               ; preds = %12
  br label %52

52:                                               ; preds = %51
  %53 = load i32, i32* %3, align 4
  %54 = add nsw i32 %53, 1
  store i32 %54, i32* %3, align 4
  br label %6

55:                                               ; preds = %6
  %56 = load i32*, i32** %2, align 8
  %57 = getelementptr inbounds i32, i32* %56, i64 1
  %58 = load i32, i32* %57, align 4
  ret i32 %58
}

; Function Attrs: noinline nounwind uwtable
define dso_local i32 @main() #0 {
  %1 = alloca i32, align 4
  %2 = alloca [26 x i32], align 16
  %3 = alloca [26 x i32], align 16
  %4 = alloca i32, align 4
  %5 = alloca i32, align 4
  %6 = alloca i32, align 4
  %7 = alloca i32, align 4
  %8 = alloca i32, align 4
  %9 = alloca [26 x i32], align 16
  %10 = alloca i32, align 4
  store i32 0, i32* %1, align 4
  %11 = bitcast [26 x i32]* %2 to i8*
  call void @llvm.memset.p0i8.i64(i8* align 16 %11, i8 0, i64 104, i1 false)
  %12 = bitcast [26 x i32]* %3 to i8*
  call void @llvm.memset.p0i8.i64(i8* align 16 %12, i8 0, i64 104, i1 false)
  %13 = call i32 (i8*, ...) @__isoc99_scanf(i8* getelementptr inbounds ([3 x i8], [3 x i8]* @.str, i64 0, i64 0), i32* %6)
  store i32 1, i32* %4, align 4
  br label %14

14:                                               ; preds = %26, %0
  %15 = load i32, i32* %4, align 4
  %16 = load i32, i32* %6, align 4
  %17 = icmp sle i32 %15, %16
  br i1 %17, label %18, label %29

18:                                               ; preds = %14
  %19 = load i32, i32* %4, align 4
  %20 = sext i32 %19 to i64
  %21 = getelementptr inbounds [26 x i32], [26 x i32]* %2, i64 0, i64 %20
  %22 = call i32 (i8*, ...) @__isoc99_scanf(i8* getelementptr inbounds ([4 x i8], [4 x i8]* @.str.1, i64 0, i64 0), i32* %21)
  %23 = load i32, i32* %4, align 4
  %24 = sext i32 %23 to i64
  %25 = getelementptr inbounds [26 x i32], [26 x i32]* %3, i64 0, i64 %24
  store i32 1, i32* %25, align 4
  br label %26

26:                                               ; preds = %18
  %27 = load i32, i32* %4, align 4
  %28 = add nsw i32 %27, 1
  store i32 %28, i32* %4, align 4
  br label %14

29:                                               ; preds = %14
  %30 = load i32, i32* %6, align 4
  %31 = sub nsw i32 %30, 1
  store i32 %31, i32* %5, align 4
  br label %32

32:                                               ; preds = %79, %29
  %33 = load i32, i32* %5, align 4
  %34 = icmp sgt i32 %33, 0
  br i1 %34, label %35, label %82

35:                                               ; preds = %32
  %36 = bitcast [26 x i32]* %9 to i8*
  call void @llvm.memset.p0i8.i64(i8* align 16 %36, i8 0, i64 104, i1 false)
  store i32 1, i32* %10, align 4
  %37 = load i32, i32* %5, align 4
  %38 = add nsw i32 %37, 1
  store i32 %38, i32* %7, align 4
  br label %39

39:                                               ; preds = %64, %35
  %40 = load i32, i32* %7, align 4
  %41 = load i32, i32* %6, align 4
  %42 = icmp sle i32 %40, %41
  br i1 %42, label %43, label %67

43:                                               ; preds = %39
  %44 = load i32, i32* %5, align 4
  %45 = sext i32 %44 to i64
  %46 = getelementptr inbounds [26 x i32], [26 x i32]* %2, i64 0, i64 %45
  %47 = load i32, i32* %46, align 4
  %48 = load i32, i32* %7, align 4
  %49 = sext i32 %48 to i64
  %50 = getelementptr inbounds [26 x i32], [26 x i32]* %2, i64 0, i64 %49
  %51 = load i32, i32* %50, align 4
  %52 = icmp sge i32 %47, %51
  br i1 %52, label %53, label %63

53:                                               ; preds = %43
  %54 = load i32, i32* %7, align 4
  %55 = sext i32 %54 to i64
  %56 = getelementptr inbounds [26 x i32], [26 x i32]* %3, i64 0, i64 %55
  %57 = load i32, i32* %56, align 4
  %58 = load i32, i32* %10, align 4
  %59 = sext i32 %58 to i64
  %60 = getelementptr inbounds [26 x i32], [26 x i32]* %9, i64 0, i64 %59
  store i32 %57, i32* %60, align 4
  %61 = load i32, i32* %10, align 4
  %62 = add nsw i32 %61, 1
  store i32 %62, i32* %10, align 4
  br label %63

63:                                               ; preds = %53, %43
  br label %64

64:                                               ; preds = %63
  %65 = load i32, i32* %7, align 4
  %66 = add nsw i32 %65, 1
  store i32 %66, i32* %7, align 4
  br label %39

67:                                               ; preds = %39
  %68 = getelementptr inbounds [26 x i32], [26 x i32]* %9, i64 0, i64 0
  %69 = call i32 @max(i32* %68)
  store i32 %69, i32* %8, align 4
  %70 = load i32, i32* %5, align 4
  %71 = sext i32 %70 to i64
  %72 = getelementptr inbounds [26 x i32], [26 x i32]* %3, i64 0, i64 %71
  %73 = load i32, i32* %72, align 4
  %74 = load i32, i32* %8, align 4
  %75 = add nsw i32 %73, %74
  %76 = load i32, i32* %5, align 4
  %77 = sext i32 %76 to i64
  %78 = getelementptr inbounds [26 x i32], [26 x i32]* %3, i64 0, i64 %77
  store i32 %75, i32* %78, align 4
  br label %79

79:                                               ; preds = %67
  %80 = load i32, i32* %5, align 4
  %81 = add nsw i32 %80, -1
  store i32 %81, i32* %5, align 4
  br label %32

82:                                               ; preds = %32
  %83 = getelementptr inbounds [26 x i32], [26 x i32]* %3, i64 0, i64 0
  %84 = call i32 @max(i32* %83)
  %85 = call i32 (i8*, ...) @printf(i8* getelementptr inbounds ([4 x i8], [4 x i8]* @.str.2, i64 0, i64 0), i32 %84)
  ret i32 0
}

; Function Attrs: argmemonly nounwind willreturn
declare void @llvm.memset.p0i8.i64(i8* nocapture writeonly, i8, i64, i1 immarg) #1

declare dso_local i32 @__isoc99_scanf(i8*, ...) #2

declare dso_local i32 @printf(i8*, ...) #2


!llvm.module.flags = !{!0}
!llvm.ident = !{!1}

!0 = !{i32 1, !"wchar_size", i32 4}
!1 = !{!"clang version 10.0.0-4ubuntu1 "}
